target datalayout = "e-m:e-p270:32:32-p271:32:32-p272:64:64-i64:64-i128:128-f80:128-n8:16:32:64-S128"
target triple = "x86_64-unknown-linux-gnu"

%class.maximize_ac_sharing = type { ptr, ptr, i8, %class.region, %class.ptr_hashtable, %class.ptr_vector, %class.svector, %class.svector.1 }
%class.region = type { ptr, ptr, ptr, ptr, ptr }
%class.ptr_hashtable = type { %class.core_hashtable.base, [4 x i8] }
%class.core_hashtable.base = type <{ ptr, i32, i32, i32 }>
%class.ptr_vector = type { %class.vector }
%class.vector = type { ptr }
%class.svector = type { %class.vector.0 }
%class.vector.0 = type { ptr }
%class.svector.1 = type { %class.vector.2 }
%class.vector.2 = type { ptr }
%class.ast = type { i32, i24, i32, i32 }
%"struct.maximize_ac_sharing::entry" = type { ptr, ptr, ptr }

; Function Attrs: mustprogress nounwind uwtable
define linkonce_odr hidden noundef i32 @_ZNK3ast13get_ref_countEv(ptr noundef nonnull align 4 dereferenceable(16) %this) #5 comdat align 2 {
entry:
  %this.addr = alloca ptr, align 8
  store ptr %this, ptr %this.addr, align 8
  %this1 = load ptr, ptr %this.addr, align 8
  %m_ref_count = getelementptr inbounds %class.ast, ptr %this1, i32 0, i32 2
  %0 = load i32, ptr %m_ref_count, align 4
  ret i32 %0
}

; Function Attrs: mustprogress nounwind uwtable
define linkonce_odr hidden void @_ZN3ast7dec_refEv(ptr noundef nonnull align 4 dereferenceable(16) %this) #5 comdat align 2 {
entry:
  %this.addr = alloca ptr, align 8
  store ptr %this, ptr %this.addr, align 8
  %this1 = load ptr, ptr %this.addr, align 8
  %m_ref_count = getelementptr inbounds %class.ast, ptr %this1, i32 0, i32 2
  %0 = load i32, ptr %m_ref_count, align 4
  %dec = add i32 %0, -1
  store i32 %dec, ptr %m_ref_count, align 4
  ret void
}

; Function Attrs: mustprogress nounwind uwtable
define linkonce_odr hidden void @_ZN6vectorIPN19maximize_ac_sharing5entryELb0EjE6shrinkEj(ptr noundef nonnull align 8 dereferenceable(8) %this, i32 noundef %s) #5 comdat align 2 {
entry:
  %this.addr = alloca ptr, align 8
  %s.addr = alloca i32, align 4
  store ptr %this, ptr %this.addr, align 8
  store i32 %s, ptr %s.addr, align 4
  %this1 = load ptr, ptr %this.addr, align 8
  %m_data = getelementptr inbounds %class.vector, ptr %this1, i32 0, i32 0
  %0 = load ptr, ptr %m_data, align 8
  %tobool = icmp ne ptr %0, null
  br i1 %tobool, label %if.then, label %if.else

if.then:                                          ; preds = %entry
  %1 = load i32, ptr %s.addr, align 4
  %m_data2 = getelementptr inbounds %class.vector, ptr %this1, i32 0, i32 0
  %2 = load ptr, ptr %m_data2, align 8
  %arrayidx = getelementptr inbounds i32, ptr %2, i64 -1
  store i32 %1, ptr %arrayidx, align 4
  br label %if.end

if.else:                                          ; preds = %entry
  br label %if.end

if.end:                                           ; preds = %if.else, %if.then
  ret void
}

; Function Attrs: mustprogress uwtable
define linkonce_odr hidden void @_ZN11ast_manager7dec_refEP3ast(ptr noundef nonnull align 8 dereferenceable(976) %this, ptr noundef %n) #4 comdat align 2 {
entry:
  %this.addr = alloca ptr, align 8
  %n.addr = alloca ptr, align 8
  store ptr %this, ptr %this.addr, align 8
  store ptr %n, ptr %n.addr, align 8
  %this1 = load ptr, ptr %this.addr, align 8
  %0 = load ptr, ptr %n.addr, align 8
  %tobool = icmp ne ptr %0, null
  br i1 %tobool, label %if.then, label %if.end3

if.then:                                          ; preds = %entry
  %1 = load ptr, ptr %n.addr, align 8
  call void @_ZN3ast7dec_refEv(ptr noundef nonnull align 4 dereferenceable(16) %1)
  %2 = load ptr, ptr %n.addr, align 8
  %call = call noundef i32 @_ZNK3ast13get_ref_countEv(ptr noundef nonnull align 4 dereferenceable(16) %2)
  %cmp = icmp eq i32 %call, 0
  br i1 %cmp, label %if.then2, label %if.end

if.then2:                                         ; preds = %if.then
  %3 = load ptr, ptr %n.addr, align 8
  call void @_ZN11ast_manager11delete_nodeEP3ast(ptr noundef nonnull align 8 dereferenceable(976) %this1, ptr noundef %3)
  br label %if.end

if.end:                                           ; preds = %if.then2, %if.then
  br label %if.end3

if.end3:                                          ; preds = %if.end, %entry
  ret void
}

; Function Attrs: mustprogress nounwind uwtable
define linkonce_odr hidden noundef nonnull align 8 dereferenceable(8) ptr @_ZN6vectorIPN19maximize_ac_sharing5entryELb0EjEixEj(ptr noundef nonnull align 8 dereferenceable(8) %this, i32 noundef %idx) #5 comdat align 2 {
entry:
  %this.addr = alloca ptr, align 8
  %idx.addr = alloca i32, align 4
  store ptr %this, ptr %this.addr, align 8
  store i32 %idx, ptr %idx.addr, align 4
  %this1 = load ptr, ptr %this.addr, align 8
  %m_data = getelementptr inbounds %class.vector, ptr %this1, i32 0, i32 0
  %0 = load ptr, ptr %m_data, align 8
  %1 = load i32, ptr %idx.addr, align 4
  %idxprom = zext i32 %1 to i64
  %arrayidx = getelementptr inbounds ptr, ptr %0, i64 %idxprom
  ret ptr %arrayidx
}

; Function Attrs: mustprogress nounwind uwtable
define linkonce_odr hidden noundef i32 @_ZNK6vectorIPN19maximize_ac_sharing5entryELb0EjE4sizeEv(ptr noundef nonnull align 8 dereferenceable(8) %this) #5 comdat align 2 {
entry:
  %retval = alloca i32, align 4
  %this.addr = alloca ptr, align 8
  store ptr %this, ptr %this.addr, align 8
  %this1 = load ptr, ptr %this.addr, align 8
  %m_data = getelementptr inbounds %class.vector, ptr %this1, i32 0, i32 0
  %0 = load ptr, ptr %m_data, align 8
  %cmp = icmp eq ptr %0, null
  br i1 %cmp, label %if.then, label %if.end

if.then:                                          ; preds = %entry
  store i32 0, ptr %retval, align 4
  br label %return

if.end:                                           ; preds = %entry
  %m_data2 = getelementptr inbounds %class.vector, ptr %this1, i32 0, i32 0
  %1 = load ptr, ptr %m_data2, align 8
  %arrayidx = getelementptr inbounds i32, ptr %1, i64 -1
  %2 = load i32, ptr %arrayidx, align 4
  store i32 %2, ptr %retval, align 4
  br label %return

return:                                           ; preds = %if.end, %if.then
  %3 = load i32, ptr %retval, align 4
  ret i32 %3
}

; Function Attrs: mustprogress uwtable
define hidden void @_ZN19maximize_ac_sharing15restore_entriesEj(ptr noundef nonnull align 8 dereferenceable(112) %this, i32 noundef %old_lim) #4 align 2 {
entry:
  %this.addr = alloca ptr, align 8
  %old_lim.addr = alloca i32, align 4
  %i = alloca i32, align 4
  %e = alloca ptr, align 8
  store ptr %this, ptr %this.addr, align 8
  store i32 %old_lim, ptr %old_lim.addr, align 4
  %this1 = load ptr, ptr %this.addr, align 8
  %m_entries = getelementptr inbounds %class.maximize_ac_sharing, ptr %this1, i32 0, i32 5
  %call = call noundef i32 @_ZNK6vectorIPN19maximize_ac_sharing5entryELb0EjE4sizeEv(ptr noundef nonnull align 8 dereferenceable(8) %m_entries)
  store i32 %call, ptr %i, align 4
  br label %while.cond

while.cond:                                       ; preds = %while.body, %entry
  %0 = load i32, ptr %i, align 4
  %1 = load i32, ptr %old_lim.addr, align 4
  %cmp = icmp ne i32 %0, %1
  br i1 %cmp, label %while.body, label %while.end

while.body:                                       ; preds = %while.cond
  %2 = load i32, ptr %i, align 4
  %dec = add i32 %2, -1
  store i32 %dec, ptr %i, align 4
  %m_entries2 = getelementptr inbounds %class.maximize_ac_sharing, ptr %this1, i32 0, i32 5
  %3 = load i32, ptr %i, align 4
  %call3 = call noundef nonnull align 8 dereferenceable(8) ptr @_ZN6vectorIPN19maximize_ac_sharing5entryELb0EjEixEj(ptr noundef nonnull align 8 dereferenceable(8) %m_entries2, i32 noundef %3)
  %4 = load ptr, ptr %call3, align 8
  store ptr %4, ptr %e, align 8
  %m_cache = getelementptr inbounds %class.maximize_ac_sharing, ptr %this1, i32 0, i32 4
  call void @_ZN14core_hashtableI14ptr_hash_entryIN19maximize_ac_sharing5entryEE12obj_ptr_hashIS2_E8deref_eqIS2_EE6removeERKPS2_(ptr noundef nonnull align 8 dereferenceable(20) %m_cache, ptr noundef nonnull align 8 dereferenceable(8) %e)
  %m = getelementptr inbounds %class.maximize_ac_sharing, ptr %this1, i32 0, i32 1
  %5 = load ptr, ptr %m, align 8
  %6 = load ptr, ptr %e, align 8
  %m_arg1 = getelementptr inbounds %"struct.maximize_ac_sharing::entry", ptr %6, i32 0, i32 1
  %7 = load ptr, ptr %m_arg1, align 8
  call void @_ZN11ast_manager7dec_refEP3ast(ptr noundef nonnull align 8 dereferenceable(976) %5, ptr noundef %7)
  %m4 = getelementptr inbounds %class.maximize_ac_sharing, ptr %this1, i32 0, i32 1
  %8 = load ptr, ptr %m4, align 8
  %9 = load ptr, ptr %e, align 8
  %m_arg2 = getelementptr inbounds %"struct.maximize_ac_sharing::entry", ptr %9, i32 0, i32 2
  %10 = load ptr, ptr %m_arg2, align 8
  call void @_ZN11ast_manager7dec_refEP3ast(ptr noundef nonnull align 8 dereferenceable(976) %8, ptr noundef %10)
  br label %while.cond, !llvm.loop !12

while.end:                                        ; preds = %while.cond
  %m_entries5 = getelementptr inbounds %class.maximize_ac_sharing, ptr %this1, i32 0, i32 5
  %11 = load i32, ptr %old_lim.addr, align 4
  call void @_ZN6vectorIPN19maximize_ac_sharing5entryELb0EjE6shrinkEj(ptr noundef nonnull align 8 dereferenceable(8) %m_entries5, i32 noundef %11)
  ret void
}