; Function Attrs: mustprogress uwtable
define hidden void @_ZN19maximize_ac_sharing15restore_entriesEj(ptr noundef nonnull align 8 dereferenceable(112) %this, i32 noundef %old_lim) local_unnamed_addr #3 align 2 {
entry:
  %e = alloca ptr, align 8
  %m_entries = getelementptr inbounds i8, ptr %this, i64 88
  %0 = load ptr, ptr %m_entries, align 8
  %cmp.i = icmp eq ptr %0, null
  br i1 %cmp.i, label %_ZNK6vectorIPN19maximize_ac_sharing5entryELb0EjE4sizeEv.exit, label %if.end.i

if.end.i:                                         ; preds = %entry
  %arrayidx.i = getelementptr inbounds i8, ptr %0, i64 -4
  %1 = load i32, ptr %arrayidx.i, align 4
  br label %_ZNK6vectorIPN19maximize_ac_sharing5entryELb0EjE4sizeEv.exit

_ZNK6vectorIPN19maximize_ac_sharing5entryELb0EjE4sizeEv.exit: ; preds = %entry, %if.end.i
  %retval.0.i = phi i32 [ %1, %if.end.i ], [ 0, %entry ]
  %cmp.not17 = icmp eq i32 %retval.0.i, %old_lim
  br i1 %cmp.not17, label %while.end, label %while.body.lr.ph

while.body.lr.ph:                                 ; preds = %_ZNK6vectorIPN19maximize_ac_sharing5entryELb0EjE4sizeEv.exit
  %m_cache = getelementptr inbounds i8, ptr %this, i64 64
  %m = getelementptr inbounds i8, ptr %this, i64 8
  br label %while.body

while.body:                                       ; preds = %while.body.lr.ph, %_ZN11ast_manager7dec_refEP3ast.exit12
  %i.018 = phi i32 [ %retval.0.i, %while.body.lr.ph ], [ %dec, %_ZN11ast_manager7dec_refEP3ast.exit12 ]
  %dec = add i32 %i.018, -1
  %2 = load ptr, ptr %m_entries, align 8
  %idxprom.i = zext i32 %dec to i64
  %arrayidx.i4 = getelementptr inbounds ptr, ptr %2, i64 %idxprom.i
  %3 = load ptr, ptr %arrayidx.i4, align 8
  store ptr %3, ptr %e, align 8
  call void @_ZN14core_hashtableI14ptr_hash_entryIN19maximize_ac_sharing5entryEE12obj_ptr_hashIS2_E8deref_eqIS2_EE6removeERKPS2_(ptr noundef nonnull align 8 dereferenceable(20) %m_cache, ptr noundef nonnull align 8 dereferenceable(8) %e)
  %4 = load ptr, ptr %m, align 8
  %5 = load ptr, ptr %e, align 8
  %m_arg1 = getelementptr inbounds i8, ptr %5, i64 8
  %6 = load ptr, ptr %m_arg1, align 8
  %tobool.not.i = icmp eq ptr %6, null
  br i1 %tobool.not.i, label %_ZN11ast_manager7dec_refEP3ast.exit, label %if.then.i

if.then.i:                                        ; preds = %while.body
  %m_ref_count.i.i = getelementptr inbounds i8, ptr %6, i64 8
  %7 = load i32, ptr %m_ref_count.i.i, align 4
  %dec.i.i = add i32 %7, -1
  store i32 %dec.i.i, ptr %m_ref_count.i.i, align 4
  %cmp.i5 = icmp eq i32 %dec.i.i, 0
  br i1 %cmp.i5, label %if.then2.i, label %_ZN11ast_manager7dec_refEP3ast.exit

if.then2.i:                                       ; preds = %if.then.i
  call void @_ZN11ast_manager11delete_nodeEP3ast(ptr noundef nonnull align 8 dereferenceable(976) %4, ptr noundef nonnull %6)
  %.pre = load ptr, ptr %e, align 8
  br label %_ZN11ast_manager7dec_refEP3ast.exit

_ZN11ast_manager7dec_refEP3ast.exit:              ; preds = %while.body, %if.then.i, %if.then2.i
  %8 = phi ptr [ %5, %while.body ], [ %5, %if.then.i ], [ %.pre, %if.then2.i ]
  %9 = load ptr, ptr %m, align 8
  %m_arg2 = getelementptr inbounds i8, ptr %8, i64 16
  %10 = load ptr, ptr %m_arg2, align 8
  %tobool.not.i6 = icmp eq ptr %10, null
  br i1 %tobool.not.i6, label %_ZN11ast_manager7dec_refEP3ast.exit12, label %if.then.i7

if.then.i7:                                       ; preds = %_ZN11ast_manager7dec_refEP3ast.exit
  %m_ref_count.i.i8 = getelementptr inbounds i8, ptr %10, i64 8
  %11 = load i32, ptr %m_ref_count.i.i8, align 4
  %dec.i.i9 = add i32 %11, -1
  store i32 %dec.i.i9, ptr %m_ref_count.i.i8, align 4
  %cmp.i10 = icmp eq i32 %dec.i.i9, 0
  br i1 %cmp.i10, label %if.then2.i11, label %_ZN11ast_manager7dec_refEP3ast.exit12

if.then2.i11:                                     ; preds = %if.then.i7
  call void @_ZN11ast_manager11delete_nodeEP3ast(ptr noundef nonnull align 8 dereferenceable(976) %9, ptr noundef nonnull %10)
  br label %_ZN11ast_manager7dec_refEP3ast.exit12

_ZN11ast_manager7dec_refEP3ast.exit12:            ; preds = %_ZN11ast_manager7dec_refEP3ast.exit, %if.then.i7, %if.then2.i11
  %cmp.not = icmp eq i32 %dec, %old_lim
  br i1 %cmp.not, label %while.end.loopexit, label %while.body, !llvm.loop !16

while.end.loopexit:                               ; preds = %_ZN11ast_manager7dec_refEP3ast.exit12
  %.pre19 = load ptr, ptr %m_entries, align 8
  br label %while.end

while.end:                                        ; preds = %while.end.loopexit, %_ZNK6vectorIPN19maximize_ac_sharing5entryELb0EjE4sizeEv.exit
  %12 = phi ptr [ %.pre19, %while.end.loopexit ], [ %0, %_ZNK6vectorIPN19maximize_ac_sharing5entryELb0EjE4sizeEv.exit ]
  %tobool.not.i13 = icmp eq ptr %12, null
  br i1 %tobool.not.i13, label %_ZN6vectorIPN19maximize_ac_sharing5entryELb0EjE6shrinkEj.exit, label %if.then.i14

if.then.i14:                                      ; preds = %while.end
  %arrayidx.i15 = getelementptr inbounds i8, ptr %12, i64 -4
  store i32 %old_lim, ptr %arrayidx.i15, align 4
  br label %_ZN6vectorIPN19maximize_ac_sharing5entryELb0EjE6shrinkEj.exit

_ZN6vectorIPN19maximize_ac_sharing5entryELb0EjE6shrinkEj.exit: ; preds = %while.end, %if.then.i14
  ret void
}